target datalayout = "e-m:e-p270:32:32-p271:32:32-p272:64:64-i64:64-i128:128-f80:128-n8:16:32:64-S128"
target triple = "x86_64-pc-linux-gnu"

%class.btSphereBoxCollisionAlgorithm = type <{ %class.btActivatingCollisionAlgorithm, i8, [7 x i8], ptr, i8, [7 x i8] }>
%class.btActivatingCollisionAlgorithm = type { %class.btCollisionAlgorithm }
%class.btCollisionAlgorithm = type { ptr, ptr }

; Function Attrs: mustprogress nounwind uwtable
define dso_local void @_ZN29btSphereBoxCollisionAlgorithmD2Ev(ptr noundef nonnull align 8 dereferenceable(33) %0) unnamed_addr #1 align 2 personality ptr @__gxx_personality_v0 {
  %2 = alloca ptr, align 8
  store ptr %0, ptr %2, align 8, !tbaa !12
  %3 = load ptr, ptr %2, align 8
  store ptr getelementptr inbounds inrange(-16, 40) ({ [7 x ptr] }, ptr @_ZTV29btSphereBoxCollisionAlgorithm, i32 0, i32 0, i32 2), ptr %3, align 8, !tbaa !22
  %4 = getelementptr inbounds nuw %class.btSphereBoxCollisionAlgorithm, ptr %3, i32 0, i32 1
  %5 = load i8, ptr %4, align 8, !tbaa !24, !range !30, !noundef !31
  %6 = trunc i8 %5 to i1
  br i1 %6, label %7, label %21

7:                                                ; preds = %1
  %8 = getelementptr inbounds nuw %class.btSphereBoxCollisionAlgorithm, ptr %3, i32 0, i32 3
  %9 = load ptr, ptr %8, align 8, !tbaa !29
  %10 = icmp ne ptr %9, null
  br i1 %10, label %11, label %20

11:                                               ; preds = %7
  %12 = getelementptr inbounds nuw %class.btCollisionAlgorithm, ptr %3, i32 0, i32 1
  %13 = load ptr, ptr %12, align 8, !tbaa !33
  %14 = getelementptr inbounds nuw %class.btSphereBoxCollisionAlgorithm, ptr %3, i32 0, i32 3
  %15 = load ptr, ptr %14, align 8, !tbaa !29
  %16 = load ptr, ptr %13, align 8, !tbaa !22
  %17 = getelementptr inbounds ptr, ptr %16, i64 4
  %18 = load ptr, ptr %17, align 8
  invoke void %18(ptr noundef nonnull align 8 dereferenceable(8) %13, ptr noundef %15)
          to label %19 unwind label %22

19:                                               ; preds = %11
  br label %20

20:                                               ; preds = %19, %7
  br label %21

21:                                               ; preds = %20, %1
  call void @_ZN30btActivatingCollisionAlgorithmD2Ev(ptr noundef nonnull align 8 dereferenceable(16) %3) #14
  ret void

22:                                               ; preds = %11
  %23 = landingpad { ptr, i32 }
          catch ptr null
  %24 = extractvalue { ptr, i32 } %23, 0
  call void @__clang_call_terminate(ptr %24) #15
  unreachable
}